target datalayout = "e-m:e-p270:32:32-p271:32:32-p272:64:64-i64:64-i128:128-f80:128-n8:16:32:64-S128"
target triple = "x86_64-pc-linux-gnu"

@.str.245 = private unnamed_addr constant [16 x i8] c"invalid address\00", align 1
@.str.246 = private unnamed_addr constant [26 x i8] c"invalid multicast address\00", align 1

; Function Attrs: null_pointer_is_valid sspstrong uwtable
define internal zeroext i1 @lbtrm_tag_mim_mc_incoming_address_chk_cb(ptr noundef %0, ptr noundef %1, i32 noundef %2, ptr noundef %3, ptr noundef %4, ptr noundef %5) #0 {
  %7 = alloca i1, align 1
  %8 = alloca ptr, align 8
  %9 = alloca ptr, align 8
  %10 = alloca i32, align 4
  %11 = alloca ptr, align 8
  %12 = alloca ptr, align 8
  %13 = alloca ptr, align 8
  %14 = alloca i32, align 4
  %15 = alloca i32, align 4
  %16 = alloca i32, align 4
  %17 = alloca i32, align 4
  %18 = alloca i32, align 4
  %19 = alloca i32, align 4
  %20 = alloca i32, align 4
  %21 = alloca i32, align 4
  store ptr %0, ptr %8, align 8
  store ptr %1, ptr %9, align 8
  store i32 %2, ptr %10, align 4
  store ptr %3, ptr %11, align 8
  store ptr %4, ptr %12, align 8
  store ptr %5, ptr %13, align 8
  call void @llvm.lifetime.start.p0(i64 4, ptr %14) #9
  %22 = load ptr, ptr %9, align 8
  %23 = call zeroext i1 @ws_inet_pton4(ptr noundef %22, ptr noundef %14)
  br i1 %23, label %27, label %24

24:                                               ; preds = %6
  %25 = call noalias ptr @g_strdup(ptr noundef @.str.245)
  %26 = load ptr, ptr %13, align 8
  store ptr %25, ptr %26, align 8
  store i1 false, ptr %7, align 1
  store i32 1, ptr %15, align 4
  br label %86

27:                                               ; preds = %6
  call void @llvm.lifetime.start.p0(i64 4, ptr %16) #9
  call void @llvm.lifetime.start.p0(i64 4, ptr %17) #9
  %28 = load i32, ptr %14, align 4
  store i32 %28, ptr %17, align 4
  %29 = load i32, ptr %17, align 4
  %30 = call i1 @llvm.is.constant.i32(i32 %29)
  br i1 %30, label %31, label %47

31:                                               ; preds = %27
  %32 = load i32, ptr %17, align 4
  %33 = and i32 %32, 255
  %34 = shl i32 %33, 24
  %35 = load i32, ptr %17, align 4
  %36 = and i32 %35, 65280
  %37 = shl i32 %36, 8
  %38 = or i32 %34, %37
  %39 = load i32, ptr %17, align 4
  %40 = and i32 %39, 16711680
  %41 = lshr i32 %40, 8
  %42 = or i32 %38, %41
  %43 = load i32, ptr %17, align 4
  %44 = and i32 %43, -16777216
  %45 = lshr i32 %44, 24
  %46 = or i32 %42, %45
  store i32 %46, ptr %16, align 4
  br label %50

47:                                               ; preds = %27
  %48 = load i32, ptr %17, align 4
  %49 = call i32 asm "bswapl $0", "=r,0,~{dirflag},~{fpsr},~{flags}"(i32 %48) #11, !srcloc !27
  store i32 %49, ptr %16, align 4
  br label %50

50:                                               ; preds = %47, %31
  %51 = load i32, ptr %16, align 4
  store i32 %51, ptr %18, align 4
  call void @llvm.lifetime.end.p0(i64 4, ptr %17) #9
  call void @llvm.lifetime.end.p0(i64 4, ptr %16) #9
  %52 = load i32, ptr %18, align 4
  %53 = and i32 %52, -268435456
  %54 = icmp eq i32 %53, -536870912
  br i1 %54, label %85, label %55

55:                                               ; preds = %50
  call void @llvm.lifetime.start.p0(i64 4, ptr %19) #9
  call void @llvm.lifetime.start.p0(i64 4, ptr %20) #9
  %56 = load i32, ptr %14, align 4
  store i32 %56, ptr %20, align 4
  %57 = load i32, ptr %20, align 4
  %58 = call i1 @llvm.is.constant.i32(i32 %57)
  br i1 %58, label %59, label %75

59:                                               ; preds = %55
  %60 = load i32, ptr %20, align 4
  %61 = and i32 %60, 255
  %62 = shl i32 %61, 24
  %63 = load i32, ptr %20, align 4
  %64 = and i32 %63, 65280
  %65 = shl i32 %64, 8
  %66 = or i32 %62, %65
  %67 = load i32, ptr %20, align 4
  %68 = and i32 %67, 16711680
  %69 = lshr i32 %68, 8
  %70 = or i32 %66, %69
  %71 = load i32, ptr %20, align 4
  %72 = and i32 %71, -16777216
  %73 = lshr i32 %72, 24
  %74 = or i32 %70, %73
  store i32 %74, ptr %19, align 4
  br label %78

75:                                               ; preds = %55
  %76 = load i32, ptr %20, align 4
  %77 = call i32 asm "bswapl $0", "=r,0,~{dirflag},~{fpsr},~{flags}"(i32 %76) #11, !srcloc !28
  store i32 %77, ptr %19, align 4
  br label %78

78:                                               ; preds = %75, %59
  %79 = load i32, ptr %19, align 4
  store i32 %79, ptr %21, align 4
  call void @llvm.lifetime.end.p0(i64 4, ptr %20) #9
  call void @llvm.lifetime.end.p0(i64 4, ptr %19) #9
  %80 = load i32, ptr %21, align 4
  %81 = icmp ne i32 %80, 0
  br i1 %81, label %82, label %85

82:                                               ; preds = %78
  %83 = call noalias ptr @g_strdup(ptr noundef @.str.246)
  %84 = load ptr, ptr %13, align 8
  store ptr %83, ptr %84, align 8
  store i1 false, ptr %7, align 1
  store i32 1, ptr %15, align 4
  br label %86

85:                                               ; preds = %78, %50
  store i1 true, ptr %7, align 1
  store i32 1, ptr %15, align 4
  br label %86

86:                                               ; preds = %85, %82, %24
  call void @llvm.lifetime.end.p0(i64 4, ptr %14) #9
  %87 = load i1, ptr %7, align 1
  ret i1 %87
}