; Function Attrs: null_pointer_is_valid sspstrong uwtable
define internal noundef zeroext i1 @lbtrm_tag_mim_mc_incoming_address_chk_cb(ptr readnone captures(none) %0, ptr noundef %1, i32 %2, ptr readnone captures(none) %3, ptr readnone captures(none) %4, ptr noundef writeonly captures(none) %5) #0 {
  %7 = alloca i32, align 4
  call void @llvm.lifetime.start.p0(i64 4, ptr nonnull %7) #10
  %8 = call zeroext i1 @ws_inet_pton4(ptr noundef %1, ptr noundef nonnull %7)
  br i1 %8, label %9, label %.sink.split

9:                                                ; preds = %6
  %10 = load i32, ptr %7, align 4
  %11 = call i32 asm "bswapl $0", "=r,0,~{dirflag},~{fpsr},~{flags}"(i32 %10) #11, !srcloc !26
  %12 = and i32 %11, -268435456
  %13 = icmp eq i32 %12, -536870912
  br i1 %13, label %17, label %14

14:                                               ; preds = %9
  %15 = call i32 asm "bswapl $0", "=r,0,~{dirflag},~{fpsr},~{flags}"(i32 %10) #11, !srcloc !27
  %.not = icmp eq i32 %15, 0
  br i1 %.not, label %17, label %.sink.split

.sink.split:                                      ; preds = %14, %6
  %.str.246.sink = phi ptr [ @.str.245, %6 ], [ @.str.246, %14 ]
  %16 = call noalias ptr @g_strdup(ptr noundef nonnull %.str.246.sink)
  store ptr %16, ptr %5, align 8
  br label %17

17:                                               ; preds = %.sink.split, %9, %14
  %.0 = phi i1 [ true, %14 ], [ true, %9 ], [ false, %.sink.split ]
  call void @llvm.lifetime.end.p0(i64 4, ptr nonnull %7) #10
  ret i1 %.0
}